; Function Attrs: nounwind uwtable
define noundef i32 @Abc_DecTest(ptr noundef %0, i32 noundef %1, i32 noundef %2, i32 noundef %3) local_unnamed_addr #9 {
  %.not = icmp eq i32 %3, 0
  br i1 %.not, label %7, label %5

5:                                                ; preds = %4
  %6 = tail call i32 (ptr, ...) @printf(ptr noundef nonnull dereferenceable(1) @.str.27, ptr noundef %0)
  br label %7

7:                                                ; preds = %5, %4
  %8 = icmp eq i32 %1, 0
  br i1 %8, label %9, label %18

9:                                                ; preds = %7
  %10 = icmp slt i32 %2, 0
  br i1 %10, label %11, label %Abc_TtStoreTest.exit

11:                                               ; preds = %9
  %12 = tail call ptr @Abc_TtStoreLoad(ptr noundef %0, i32 noundef -1)
  %13 = icmp eq ptr %12, null
  br i1 %13, label %Abc_TtStoreTest.exit, label %14

14:                                               ; preds = %11
  tail call void @Abc_TtStoreWrite(ptr noundef nonnull @.str.11, ptr noundef nonnull %12, i32 noundef 0)
  %15 = getelementptr inbounds nuw i8, ptr %12, i64 16
  %16 = load ptr, ptr %15, align 8, !tbaa !18
  %.not10.i.i = icmp eq ptr %16, null
  br i1 %.not10.i.i, label %Abc_TtStoreFree.exit.i, label %.thread.i.i

.thread.i.i:                                      ; preds = %14
  tail call void @free(ptr noundef nonnull %16) #21
  br label %Abc_TtStoreFree.exit.i

Abc_TtStoreFree.exit.i:                           ; preds = %.thread.i.i, %14
  tail call void @free(ptr noundef nonnull %12) #21
  %17 = tail call i32 (ptr, ...) @printf(ptr noundef nonnull dereferenceable(1) @.str.10, ptr noundef %0, ptr noundef nonnull @.str.11)
  br label %Abc_TtStoreTest.exit

18:                                               ; preds = %7
  %or.cond = icmp ult i32 %1, 7
  br i1 %or.cond, label %19, label %30

19:                                               ; preds = %18
  %20 = tail call ptr @Abc_TtStoreLoad(ptr noundef %0, i32 noundef %2)
  %21 = icmp eq ptr %20, null
  br i1 %21, label %Abc_TtStoreTest.exit, label %22

22:                                               ; preds = %19
  tail call void @Abc_TruthDecPerform(ptr noundef nonnull %20, i32 noundef %1, i32 noundef %3)
  %23 = icmp sgt i32 %2, -1
  %24 = getelementptr inbounds nuw i8, ptr %20, i64 16
  %25 = load ptr, ptr %24, align 8, !tbaa !18
  br i1 %23, label %26, label %29

26:                                               ; preds = %22
  %27 = load ptr, ptr %25, align 8, !tbaa !19
  %.not.i.i = icmp eq ptr %27, null
  br i1 %.not.i.i, label %.thread.i.i13, label %28

28:                                               ; preds = %26
  tail call void @free(ptr noundef nonnull %27) #21
  br label %.thread.i.i13

29:                                               ; preds = %22
  %.not10.i.i12 = icmp eq ptr %25, null
  br i1 %.not10.i.i12, label %Abc_TtStoreFree.exit.i14, label %.thread.i.i13

.thread.i.i13:                                    ; preds = %29, %28, %26
  tail call void @free(ptr noundef nonnull %25) #21
  br label %Abc_TtStoreFree.exit.i14

Abc_TtStoreFree.exit.i14:                         ; preds = %.thread.i.i13, %29
  tail call void @free(ptr noundef nonnull %20) #21
  br label %Abc_TtStoreTest.exit

30:                                               ; preds = %18
  %31 = tail call i32 (ptr, ...) @printf(ptr noundef nonnull dereferenceable(1) @.str.28, i32 noundef %1)
  br label %Abc_TtStoreTest.exit

Abc_TtStoreTest.exit:                             ; preds = %Abc_TtStoreFree.exit.i14, %19, %Abc_TtStoreFree.exit.i, %11, %30, %9
  %32 = load ptr, ptr @stdout, align 8, !tbaa !30
  %33 = tail call i32 @fflush(ptr noundef %32)
  ret i32 0
}